target datalayout = "e-m:e-p270:32:32-p271:32:32-p272:64:64-i64:64-i128:128-f80:128-n8:16:32:64-S128"
target triple = "x86_64-pc-linux-gnu"

%struct.If_LibLut_t_ = type { ptr, i32, i32, [33 x float], [33 x [33 x float]] }

@stdout = external global ptr, align 8
@.str.7 = private unnamed_addr constant [45 x i8] c"Reading LUT library from string has failed.\0A\00", align 1

; Function Attrs: nounwind uwtable
define void @If_LibLutFree(ptr noundef %0) #0 {
  %2 = alloca ptr, align 8
  store ptr %0, ptr %2, align 8, !tbaa !15
  %3 = load ptr, ptr %2, align 8, !tbaa !15
  %4 = icmp eq ptr %3, null
  br i1 %4, label %5, label %6

5:                                                ; preds = %1
  br label %25

6:                                                ; preds = %1
  %7 = load ptr, ptr %2, align 8, !tbaa !15
  %8 = getelementptr inbounds nuw %struct.If_LibLut_t_, ptr %7, i32 0, i32 0
  %9 = load ptr, ptr %8, align 8, !tbaa !19
  %10 = icmp ne ptr %9, null
  br i1 %10, label %11, label %17

11:                                               ; preds = %6
  %12 = load ptr, ptr %2, align 8, !tbaa !15
  %13 = getelementptr inbounds nuw %struct.If_LibLut_t_, ptr %12, i32 0, i32 0
  %14 = load ptr, ptr %13, align 8, !tbaa !19
  call void @free(ptr noundef %14) #12
  %15 = load ptr, ptr %2, align 8, !tbaa !15
  %16 = getelementptr inbounds nuw %struct.If_LibLut_t_, ptr %15, i32 0, i32 0
  store ptr null, ptr %16, align 8, !tbaa !19
  br label %18

17:                                               ; preds = %6
  br label %18

18:                                               ; preds = %17, %11
  %19 = load ptr, ptr %2, align 8, !tbaa !15
  %20 = icmp ne ptr %19, null
  br i1 %20, label %21, label %23

21:                                               ; preds = %18
  %22 = load ptr, ptr %2, align 8, !tbaa !15
  call void @free(ptr noundef %22) #12
  store ptr null, ptr %2, align 8, !tbaa !15
  br label %24

23:                                               ; preds = %18
  br label %24

24:                                               ; preds = %23, %21
  br label %25

25:                                               ; preds = %24, %5
  ret void
}

; Function Attrs: nounwind uwtable
define i32 @Abc_FrameSetLutLibrary(ptr noundef %0, ptr noundef %1) #0 {
  %3 = alloca i32, align 4
  %4 = alloca ptr, align 8
  %5 = alloca ptr, align 8
  %6 = alloca ptr, align 8
  %7 = alloca i32, align 4
  store ptr %0, ptr %4, align 8, !tbaa !37
  store ptr %1, ptr %5, align 8, !tbaa !3
  call void @llvm.lifetime.start.p0(i64 8, ptr %6) #12
  %8 = load ptr, ptr %5, align 8, !tbaa !3
  %9 = call ptr @If_LibLutReadString(ptr noundef %8)
  store ptr %9, ptr %6, align 8, !tbaa !15
  %10 = load ptr, ptr %6, align 8, !tbaa !15
  %11 = icmp eq ptr %10, null
  br i1 %11, label %12, label %15

12:                                               ; preds = %2
  %13 = load ptr, ptr @stdout, align 8, !tbaa !35
  %14 = call i32 (ptr, ptr, ...) @fprintf(ptr noundef %13, ptr noundef @.str.7) #12
  store i32 0, ptr %3, align 4
  store i32 1, ptr %7, align 4
  br label %18

15:                                               ; preds = %2
  %16 = call ptr (...) @Abc_FrameReadLibLut()
  call void @If_LibLutFree(ptr noundef %16)
  %17 = load ptr, ptr %6, align 8, !tbaa !15
  call void @Abc_FrameSetLibLut(ptr noundef %17)
  store i32 1, ptr %3, align 4
  store i32 1, ptr %7, align 4
  br label %18

18:                                               ; preds = %15, %12
  call void @llvm.lifetime.end.p0(i64 8, ptr %6) #12
  %19 = load i32, ptr %3, align 4
  ret i32 %19
}