; Function Attrs: nounwind uwtable
define range(i32 0, 2) i32 @Abc_FrameSetLutLibrary(ptr noundef readnone captures(none) %0, ptr noundef %1) local_unnamed_addr #0 {
  %3 = tail call ptr @If_LibLutReadString(ptr noundef %1)
  %4 = icmp eq ptr %3, null
  br i1 %4, label %5, label %8

5:                                                ; preds = %2
  %6 = load ptr, ptr @stdout, align 8, !tbaa !27
  %7 = tail call i64 @fwrite(ptr nonnull @.str.7, i64 44, i64 1, ptr %6)
  br label %15

8:                                                ; preds = %2
  %9 = tail call ptr (...) @Abc_FrameReadLibLut() #21
  %10 = icmp eq ptr %9, null
  br i1 %10, label %If_LibLutFree.exit, label %11

11:                                               ; preds = %8
  %12 = load ptr, ptr %9, align 8, !tbaa !32
  %.not.i = icmp eq ptr %12, null
  br i1 %.not.i, label %14, label %13

13:                                               ; preds = %11
  tail call void @free(ptr noundef nonnull %12) #21
  br label %14

14:                                               ; preds = %13, %11
  tail call void @free(ptr noundef nonnull %9) #21
  br label %If_LibLutFree.exit

If_LibLutFree.exit:                               ; preds = %8, %14
  tail call void @Abc_FrameSetLibLut(ptr noundef nonnull %3) #21
  br label %15

15:                                               ; preds = %If_LibLutFree.exit, %5
  %.0 = phi i32 [ 0, %5 ], [ 1, %If_LibLutFree.exit ]
  ret i32 %.0
}